target datalayout = "e-m:e-p270:32:32-p271:32:32-p272:64:64-i64:64-i128:128-f80:128-n8:16:32:64-S128"
target triple = "x86_64-pc-linux-gnu"

%struct.JsonLexContext = type { ptr, i64, i32, ptr, ptr, ptr, i8, i32, i32, i32, i32, ptr, ptr, ptr, i8, ptr, ptr }
%struct.GetState = type { ptr, ptr, ptr, i8, i8, i32, ptr, ptr, ptr, ptr }

; Function Attrs: nounwind uwtable
define internal i32 @get_array_element_end(ptr noundef %0, i1 noundef zeroext %1) #0 {
  %3 = alloca ptr, align 8
  %4 = alloca i8, align 1
  %5 = alloca ptr, align 8
  %6 = alloca i8, align 1
  %7 = alloca i32, align 4
  %8 = alloca ptr, align 8
  %9 = alloca i32, align 4
  store ptr %0, ptr %3, align 8
  %10 = zext i1 %1 to i8
  store i8 %10, ptr %4, align 1
  call void @llvm.lifetime.start.p0(i64 8, ptr %5) #10
  %11 = load ptr, ptr %3, align 8
  store ptr %11, ptr %5, align 8
  call void @llvm.lifetime.start.p0(i64 1, ptr %6) #10
  store i8 0, ptr %6, align 1
  call void @llvm.lifetime.start.p0(i64 4, ptr %7) #10
  %12 = load ptr, ptr %5, align 8
  %13 = getelementptr inbounds nuw %struct.GetState, ptr %12, i32 0, i32 0
  %14 = load ptr, ptr %13, align 8
  %15 = getelementptr inbounds nuw %struct.JsonLexContext, ptr %14, i32 0, i32 8
  %16 = load i32, ptr %15, align 8
  store i32 %16, ptr %7, align 4
  %17 = load i32, ptr %7, align 4
  %18 = load ptr, ptr %5, align 8
  %19 = getelementptr inbounds nuw %struct.GetState, ptr %18, i32 0, i32 5
  %20 = load i32, ptr %19, align 4
  %21 = icmp sle i32 %17, %20
  br i1 %21, label %22, label %70

22:                                               ; preds = %2
  %23 = load ptr, ptr %5, align 8
  %24 = getelementptr inbounds nuw %struct.GetState, ptr %23, i32 0, i32 8
  %25 = load ptr, ptr %24, align 8
  %26 = load i32, ptr %7, align 4
  %27 = sub i32 %26, 1
  %28 = sext i32 %27 to i64
  %29 = getelementptr inbounds i8, ptr %25, i64 %28
  %30 = load i8, ptr %29, align 1, !range !4, !noundef !5
  %31 = trunc i8 %30 to i1
  br i1 %31, label %32, label %70

32:                                               ; preds = %22
  %33 = load ptr, ptr %5, align 8
  %34 = getelementptr inbounds nuw %struct.GetState, ptr %33, i32 0, i32 7
  %35 = load ptr, ptr %34, align 8
  %36 = icmp ne ptr %35, null
  br i1 %36, label %37, label %70

37:                                               ; preds = %32
  %38 = load ptr, ptr %5, align 8
  %39 = getelementptr inbounds nuw %struct.GetState, ptr %38, i32 0, i32 9
  %40 = load ptr, ptr %39, align 8
  %41 = load i32, ptr %7, align 4
  %42 = sub i32 %41, 1
  %43 = sext i32 %42 to i64
  %44 = getelementptr inbounds i32, ptr %40, i64 %43
  %45 = load i32, ptr %44, align 4
  %46 = load ptr, ptr %5, align 8
  %47 = getelementptr inbounds nuw %struct.GetState, ptr %46, i32 0, i32 7
  %48 = load ptr, ptr %47, align 8
  %49 = load i32, ptr %7, align 4
  %50 = sub i32 %49, 1
  %51 = sext i32 %50 to i64
  %52 = getelementptr inbounds i32, ptr %48, i64 %51
  %53 = load i32, ptr %52, align 4
  %54 = icmp eq i32 %45, %53
  br i1 %54, label %55, label %70

55:                                               ; preds = %37
  %56 = load i32, ptr %7, align 4
  %57 = load ptr, ptr %5, align 8
  %58 = getelementptr inbounds nuw %struct.GetState, ptr %57, i32 0, i32 5
  %59 = load i32, ptr %58, align 4
  %60 = icmp slt i32 %56, %59
  br i1 %60, label %61, label %68

61:                                               ; preds = %55
  %62 = load ptr, ptr %5, align 8
  %63 = getelementptr inbounds nuw %struct.GetState, ptr %62, i32 0, i32 8
  %64 = load ptr, ptr %63, align 8
  %65 = load i32, ptr %7, align 4
  %66 = sext i32 %65 to i64
  %67 = getelementptr inbounds i8, ptr %64, i64 %66
  store i8 0, ptr %67, align 1
  br label %69

68:                                               ; preds = %55
  store i8 1, ptr %6, align 1
  br label %69

69:                                               ; preds = %68, %61
  br label %70

70:                                               ; preds = %69, %37, %32, %22, %2
  %71 = load i8, ptr %6, align 1, !range !4, !noundef !5
  %72 = trunc i8 %71 to i1
  br i1 %72, label %73, label %111

73:                                               ; preds = %70
  %74 = load ptr, ptr %5, align 8
  %75 = getelementptr inbounds nuw %struct.GetState, ptr %74, i32 0, i32 2
  %76 = load ptr, ptr %75, align 8
  %77 = icmp ne ptr %76, null
  br i1 %77, label %78, label %111

78:                                               ; preds = %73
  %79 = load i8, ptr %4, align 1, !range !4, !noundef !5
  %80 = trunc i8 %79 to i1
  br i1 %80, label %81, label %89

81:                                               ; preds = %78
  %82 = load ptr, ptr %5, align 8
  %83 = getelementptr inbounds nuw %struct.GetState, ptr %82, i32 0, i32 3
  %84 = load i8, ptr %83, align 8, !range !4, !noundef !5
  %85 = trunc i8 %84 to i1
  br i1 %85, label %86, label %89

86:                                               ; preds = %81
  %87 = load ptr, ptr %5, align 8
  %88 = getelementptr inbounds nuw %struct.GetState, ptr %87, i32 0, i32 1
  store ptr null, ptr %88, align 8
  br label %108

89:                                               ; preds = %81, %78
  call void @llvm.lifetime.start.p0(i64 8, ptr %8) #10
  %90 = load ptr, ptr %5, align 8
  %91 = getelementptr inbounds nuw %struct.GetState, ptr %90, i32 0, i32 2
  %92 = load ptr, ptr %91, align 8
  store ptr %92, ptr %8, align 8
  call void @llvm.lifetime.start.p0(i64 4, ptr %9) #10
  %93 = load ptr, ptr %5, align 8
  %94 = getelementptr inbounds nuw %struct.GetState, ptr %93, i32 0, i32 0
  %95 = load ptr, ptr %94, align 8
  %96 = getelementptr inbounds nuw %struct.JsonLexContext, ptr %95, i32 0, i32 5
  %97 = load ptr, ptr %96, align 8
  %98 = load ptr, ptr %8, align 8
  %99 = ptrtoint ptr %97 to i64
  %100 = ptrtoint ptr %98 to i64
  %101 = sub i64 %99, %100
  %102 = trunc i64 %101 to i32
  store i32 %102, ptr %9, align 4
  %103 = load ptr, ptr %8, align 8
  %104 = load i32, ptr %9, align 4
  %105 = call ptr @cstring_to_text_with_len(ptr noundef %103, i32 noundef %104)
  %106 = load ptr, ptr %5, align 8
  %107 = getelementptr inbounds nuw %struct.GetState, ptr %106, i32 0, i32 1
  store ptr %105, ptr %107, align 8
  call void @llvm.lifetime.end.p0(i64 4, ptr %9) #10
  call void @llvm.lifetime.end.p0(i64 8, ptr %8) #10
  br label %108

108:                                              ; preds = %89, %86
  %109 = load ptr, ptr %5, align 8
  %110 = getelementptr inbounds nuw %struct.GetState, ptr %109, i32 0, i32 2
  store ptr null, ptr %110, align 8
  br label %111

111:                                              ; preds = %108, %73, %70
  call void @llvm.lifetime.end.p0(i64 4, ptr %7) #10
  call void @llvm.lifetime.end.p0(i64 1, ptr %6) #10
  call void @llvm.lifetime.end.p0(i64 8, ptr %5) #10
  ret i32 0
}