; Function Attrs: nounwind uwtable
define internal noundef i32 @get_array_element_end(ptr noundef captures(none) %0, i1 noundef zeroext %1) #0 {
  %3 = load ptr, ptr %0, align 8
  %4 = getelementptr inbounds nuw i8, ptr %3, i64 56
  %5 = load i32, ptr %4, align 8
  %6 = getelementptr inbounds nuw i8, ptr %0, i64 28
  %7 = load i32, ptr %6, align 4
  %.not = icmp sgt i32 %5, %7
  br i1 %.not, label %.critedge, label %8

8:                                                ; preds = %2
  %9 = getelementptr inbounds nuw i8, ptr %0, i64 48
  %10 = load ptr, ptr %9, align 8
  %11 = add i32 %5, -1
  %12 = sext i32 %11 to i64
  %13 = getelementptr inbounds i8, ptr %10, i64 %12
  %14 = load i8, ptr %13, align 1, !range !4, !noundef !5
  %15 = trunc nuw i8 %14 to i1
  br i1 %15, label %16, label %.critedge

16:                                               ; preds = %8
  %17 = getelementptr inbounds nuw i8, ptr %0, i64 40
  %18 = load ptr, ptr %17, align 8
  %.not29 = icmp eq ptr %18, null
  br i1 %.not29, label %.critedge, label %19

19:                                               ; preds = %16
  %20 = getelementptr inbounds nuw i8, ptr %0, i64 56
  %21 = load ptr, ptr %20, align 8
  %22 = getelementptr inbounds i32, ptr %21, i64 %12
  %23 = load i32, ptr %22, align 4
  %24 = getelementptr inbounds i32, ptr %18, i64 %12
  %25 = load i32, ptr %24, align 4
  %26 = icmp eq i32 %23, %25
  br i1 %26, label %27, label %.critedge

27:                                               ; preds = %19
  %28 = icmp slt i32 %5, %7
  br i1 %28, label %29, label %32

29:                                               ; preds = %27
  %30 = sext i32 %5 to i64
  %31 = getelementptr inbounds i8, ptr %10, i64 %30
  store i8 0, ptr %31, align 1
  br label %.critedge

32:                                               ; preds = %27
  %33 = getelementptr inbounds nuw i8, ptr %0, i64 16
  %34 = load ptr, ptr %33, align 8
  %.not30 = icmp eq ptr %34, null
  br i1 %.not30, label %.critedge, label %35

35:                                               ; preds = %32
  br i1 %1, label %36, label %40

36:                                               ; preds = %35
  %37 = getelementptr inbounds nuw i8, ptr %0, i64 24
  %38 = load i8, ptr %37, align 8, !range !4, !noundef !5
  %39 = trunc nuw i8 %38 to i1
  br i1 %39, label %48, label %40

40:                                               ; preds = %36, %35
  %41 = getelementptr inbounds nuw i8, ptr %3, i64 40
  %42 = load ptr, ptr %41, align 8
  %43 = ptrtoint ptr %42 to i64
  %44 = ptrtoint ptr %34 to i64
  %45 = sub i64 %43, %44
  %46 = trunc i64 %45 to i32
  %47 = tail call ptr @cstring_to_text_with_len(ptr noundef nonnull %34, i32 noundef %46) #15
  br label %48

48:                                               ; preds = %36, %40
  %.sink = phi ptr [ %47, %40 ], [ null, %36 ]
  %49 = getelementptr inbounds nuw i8, ptr %0, i64 8
  store ptr %.sink, ptr %49, align 8
  store ptr null, ptr %33, align 8
  br label %.critedge

.critedge:                                        ; preds = %29, %19, %16, %8, %2, %48, %32
  ret i32 0
}